; Function Attrs: mustprogress nounwind uwtable
define dso_local { i64, i8 } @_ZNK4llvm18BlockFrequencyInfo23getProfileCountFromFreqENS_14BlockFrequencyE(ptr nocapture noundef nonnull readonly align 8 dereferenceable(8) %0, i64 %1) local_unnamed_addr #0 align 2 {
  %3 = load ptr, ptr %0, align 8
  %.not = icmp eq ptr %3, null
  br i1 %.not, label %9, label %_ZNK4llvm18BlockFrequencyInfo11getFunctionEv.exit

_ZNK4llvm18BlockFrequencyInfo11getFunctionEv.exit: ; preds = %2
  %4 = getelementptr inbounds nuw i8, ptr %3, i64 128
  %5 = load ptr, ptr %4, align 8
  %6 = tail call { i64, i8 } @_ZNK4llvm26BlockFrequencyInfoImplBase23getProfileCountFromFreqERKNS_8FunctionENS_14BlockFrequencyEb(ptr noundef nonnull align 8 dereferenceable(112) %3, ptr noundef nonnull align 8 dereferenceable(136) %5, i64 %1, i1 noundef zeroext false) #23
  %7 = extractvalue { i64, i8 } %6, 0
  %8 = extractvalue { i64, i8 } %6, 1
  br label %9

9:                                                ; preds = %2, %_ZNK4llvm18BlockFrequencyInfo11getFunctionEv.exit
  %.sroa.2.0 = phi i8 [ %8, %_ZNK4llvm18BlockFrequencyInfo11getFunctionEv.exit ], [ 0, %2 ]
  %.sroa.0.0 = phi i64 [ %7, %_ZNK4llvm18BlockFrequencyInfo11getFunctionEv.exit ], [ undef, %2 ]
  %.fca.0.insert = insertvalue { i64, i8 } poison, i64 %.sroa.0.0, 0
  %.fca.1.insert = insertvalue { i64, i8 } %.fca.0.insert, i8 %.sroa.2.0, 1
  ret { i64, i8 } %.fca.1.insert
}